target datalayout = "e-m:e-p270:32:32-p271:32:32-p272:64:64-i64:64-i128:128-f80:128-n8:16:32:64-S128"
target triple = "x86_64-unknown-linux-gnu"

@.str.20 = private unnamed_addr constant [36 x i8] c"%s: Failed to create subnode %s: %s\00", align 1
@__func__.qemu_fdt_add_subnode = private unnamed_addr constant [21 x i8] c"qemu_fdt_add_subnode\00", align 1
@.str.39 = private unnamed_addr constant [29 x i8] c"%s Couldn't find node %s: %s\00", align 1
@__func__.findnode_nofail = private unnamed_addr constant [16 x i8] c"findnode_nofail\00", align 1

; Function Attrs: nounwind sspstrong uwtable
define internal i32 @findnode_nofail(ptr noundef %fdt, ptr noundef %node_path) #0 {
entry:
  %fdt.addr = alloca ptr, align 8
  %node_path.addr = alloca ptr, align 8
  %offset = alloca i32, align 4
  store ptr %fdt, ptr %fdt.addr, align 8
  store ptr %node_path, ptr %node_path.addr, align 8
  %0 = load ptr, ptr %fdt.addr, align 8
  %1 = load ptr, ptr %node_path.addr, align 8
  %call = call i32 @fdt_path_offset(ptr noundef %0, ptr noundef %1)
  store i32 %call, ptr %offset, align 4
  %2 = load i32, ptr %offset, align 4
  %cmp = icmp slt i32 %2, 0
  br i1 %cmp, label %if.then, label %if.end

if.then:                                          ; preds = %entry
  %3 = load ptr, ptr %node_path.addr, align 8
  %4 = load i32, ptr %offset, align 4
  %call1 = call ptr @fdt_strerror(i32 noundef %4)
  call void (ptr, ...) @error_report(ptr noundef @.str.39, ptr noundef @__func__.findnode_nofail, ptr noundef %3, ptr noundef %call1)
  call void @exit(i32 noundef 1) #10
  unreachable

if.end:                                           ; preds = %entry
  %5 = load i32, ptr %offset, align 4
  ret i32 %5
}

; Function Attrs: nounwind sspstrong uwtable
define dso_local i32 @qemu_fdt_add_subnode(ptr noundef %fdt, ptr noundef %name) #0 {
entry:
  %retval = alloca i32, align 4
  %fdt.addr = alloca ptr, align 8
  %name.addr = alloca ptr, align 8
  %dupname = alloca ptr, align 8
  %basename = alloca ptr, align 8
  %retval2 = alloca i32, align 4
  %parent = alloca i32, align 4
  store ptr %fdt, ptr %fdt.addr, align 8
  store ptr %name, ptr %name.addr, align 8
  %0 = load ptr, ptr %name.addr, align 8
  %call = call noalias ptr @g_strdup(ptr noundef %0)
  store ptr %call, ptr %dupname, align 8
  %1 = load ptr, ptr %dupname, align 8
  %call1 = call ptr @strrchr(ptr noundef %1, i32 noundef 47) #11
  store ptr %call1, ptr %basename, align 8
  store i32 0, ptr %parent, align 4
  %2 = load ptr, ptr %basename, align 8
  %tobool = icmp ne ptr %2, null
  br i1 %tobool, label %if.end, label %if.then

if.then:                                          ; preds = %entry
  %3 = load ptr, ptr %dupname, align 8
  call void @g_free(ptr noundef %3)
  store i32 -1, ptr %retval, align 4
  br label %return

if.end:                                           ; preds = %entry
  %4 = load ptr, ptr %basename, align 8
  %arrayidx = getelementptr i8, ptr %4, i64 0
  store i8 0, ptr %arrayidx, align 1
  %5 = load ptr, ptr %basename, align 8
  %incdec.ptr = getelementptr i8, ptr %5, i32 1
  store ptr %incdec.ptr, ptr %basename, align 8
  %6 = load ptr, ptr %dupname, align 8
  %arrayidx3 = getelementptr i8, ptr %6, i64 0
  %7 = load i8, ptr %arrayidx3, align 1
  %tobool4 = icmp ne i8 %7, 0
  br i1 %tobool4, label %if.then5, label %if.end7

if.then5:                                         ; preds = %if.end
  %8 = load ptr, ptr %fdt.addr, align 8
  %9 = load ptr, ptr %dupname, align 8
  %call6 = call i32 @findnode_nofail(ptr noundef %8, ptr noundef %9)
  store i32 %call6, ptr %parent, align 4
  br label %if.end7

if.end7:                                          ; preds = %if.then5, %if.end
  %10 = load ptr, ptr %fdt.addr, align 8
  %11 = load i32, ptr %parent, align 4
  %12 = load ptr, ptr %basename, align 8
  %call8 = call i32 @fdt_add_subnode(ptr noundef %10, i32 noundef %11, ptr noundef %12)
  store i32 %call8, ptr %retval2, align 4
  %13 = load i32, ptr %retval2, align 4
  %cmp = icmp slt i32 %13, 0
  br i1 %cmp, label %if.then9, label %if.end11

if.then9:                                         ; preds = %if.end7
  %14 = load ptr, ptr %name.addr, align 8
  %15 = load i32, ptr %retval2, align 4
  %call10 = call ptr @fdt_strerror(i32 noundef %15)
  call void (ptr, ...) @error_report(ptr noundef @.str.20, ptr noundef @__func__.qemu_fdt_add_subnode, ptr noundef %14, ptr noundef %call10)
  call void @exit(i32 noundef 1) #10
  unreachable

if.end11:                                         ; preds = %if.end7
  %16 = load ptr, ptr %dupname, align 8
  call void @g_free(ptr noundef %16)
  %17 = load i32, ptr %retval2, align 4
  store i32 %17, ptr %retval, align 4
  br label %return

return:                                           ; preds = %if.end11, %if.then
  %18 = load i32, ptr %retval, align 4
  ret i32 %18
}