; Function Attrs: nounwind sspstrong uwtable
define dso_local range(i32 -1, -2147483648) i32 @qemu_fdt_add_subnode(ptr noundef %fdt, ptr noundef %name) local_unnamed_addr #0 {
entry:
  %call = tail call noalias ptr @g_strdup(ptr noundef %name) #12
  %call1 = tail call ptr @strrchr(ptr noundef nonnull dereferenceable(1) %call, i32 noundef 47) #14
  %tobool.not = icmp eq ptr %call1, null
  br i1 %tobool.not, label %return, label %if.end

if.end:                                           ; preds = %entry
  store i8 0, ptr %call1, align 1
  %incdec.ptr = getelementptr i8, ptr %call1, i64 1
  %0 = load i8, ptr %call, align 1
  %tobool4.not = icmp eq i8 %0, 0
  br i1 %tobool4.not, label %if.end7, label %if.then5

if.then5:                                         ; preds = %if.end
  %call.i = tail call i32 @fdt_path_offset(ptr noundef %fdt, ptr noundef nonnull %call) #12
  %cmp.i = icmp slt i32 %call.i, 0
  br i1 %cmp.i, label %if.then.i, label %if.end7

if.then.i:                                        ; preds = %if.then5
  %call1.i = tail call ptr @fdt_strerror(i32 noundef %call.i) #12
  tail call void (ptr, ...) @error_report(ptr noundef nonnull @.str.39, ptr noundef nonnull @__func__.findnode_nofail, ptr noundef nonnull %call, ptr noundef %call1.i) #12
  tail call void @exit(i32 noundef 1) #13
  unreachable

if.end7:                                          ; preds = %if.then5, %if.end
  %parent.0 = phi i32 [ 0, %if.end ], [ %call.i, %if.then5 ]
  %call8 = tail call i32 @fdt_add_subnode(ptr noundef %fdt, i32 noundef %parent.0, ptr noundef %incdec.ptr) #12
  %cmp = icmp slt i32 %call8, 0
  br i1 %cmp, label %if.then9, label %return

if.then9:                                         ; preds = %if.end7
  %call10 = tail call ptr @fdt_strerror(i32 noundef %call8) #12
  tail call void (ptr, ...) @error_report(ptr noundef nonnull @.str.20, ptr noundef nonnull @__func__.qemu_fdt_add_subnode, ptr noundef %name, ptr noundef %call10) #12
  tail call void @exit(i32 noundef 1) #13
  unreachable

return:                                           ; preds = %if.end7, %entry
  %retval.0 = phi i32 [ -1, %entry ], [ %call8, %if.end7 ]
  tail call void @g_free(ptr noundef nonnull %call) #12
  ret i32 %retval.0
}